ARM GAS  /tmp/ccxTWCnb.s 			page 1


   1              		.cpu cortex-m4
   2              		.arch armv7e-m
   3              		.fpu fpv4-sp-d16
   4              		.eabi_attribute 27, 1
   5              		.eabi_attribute 28, 1
   6              		.eabi_attribute 20, 1
   7              		.eabi_attribute 21, 1
   8              		.eabi_attribute 23, 3
   9              		.eabi_attribute 24, 1
  10              		.eabi_attribute 25, 1
  11              		.eabi_attribute 26, 1
  12              		.eabi_attribute 30, 1
  13              		.eabi_attribute 34, 1
  14              		.eabi_attribute 18, 4
  15              		.file	"BME280.c"
  16              		.text
  17              	.Ltext0:
  18              		.cfi_sections	.debug_frame
  19              		.file 1 "Core/Src/BME280.c"
  20              		.section	.text.validate_id,"ax",%progbits
  21              		.align	1
  22              		.syntax unified
  23              		.thumb
  24              		.thumb_func
  26              	validate_id:
  27              	.LVL0:
  28              	.LFB131:
   1:Core/Src/BME280.c **** #include <stdint.h>
   2:Core/Src/BME280.c **** #include "BME280.h"
   3:Core/Src/BME280.c **** #include "main.h"
   4:Core/Src/BME280.c **** 
   5:Core/Src/BME280.c **** BME280_error BME280_init(BME280* dev, I2C_HandleTypeDef* i2c_handle)
   6:Core/Src/BME280.c **** {
   7:Core/Src/BME280.c ****     BME280_error error_status;
   8:Core/Src/BME280.c ****     dev->i2c_handle = i2c_handle;
   9:Core/Src/BME280.c **** 
  10:Core/Src/BME280.c ****     // Check chip ID of sensor, should be 0x60
  11:Core/Src/BME280.c ****     error_status = validate_id(dev);
  12:Core/Src/BME280.c ****     if (error_status) {
  13:Core/Src/BME280.c ****         return error_status;
  14:Core/Src/BME280.c ****     } else if (dev->id != 0x60) {
  15:Core/Src/BME280.c ****         return E_INCORRECT_ID;
  16:Core/Src/BME280.c ****     }
  17:Core/Src/BME280.c **** 
  18:Core/Src/BME280.c ****     // Reset sensor
  19:Core/Src/BME280.c ****     error_status = reset(dev);
  20:Core/Src/BME280.c ****     if (error_status) return error_status;
  21:Core/Src/BME280.c **** 
  22:Core/Src/BME280.c ****     error_status = config(dev, OSRS_1x, OSRS_16x, OSRS_4x, NORMAL_MODE, MS_250, IRR_2);
  23:Core/Src/BME280.c ****     if (error_status) return error_status;
  24:Core/Src/BME280.c **** }
  25:Core/Src/BME280.c **** 
  26:Core/Src/BME280.c **** static BME280_error validate_id(BME280* dev)
  27:Core/Src/BME280.c **** {
  29              		.loc 1 27 1 view -0
  30              		.cfi_startproc
  31              		@ args = 0, pretend = 0, frame = 8
ARM GAS  /tmp/ccxTWCnb.s 			page 2


  32              		@ frame_needed = 0, uses_anonymous_args = 0
  33              		.loc 1 27 1 is_stmt 0 view .LVU1
  34 0000 10B5     		push	{r4, lr}
  35              		.cfi_def_cfa_offset 8
  36              		.cfi_offset 4, -8
  37              		.cfi_offset 14, -4
  38 0002 86B0     		sub	sp, sp, #24
  39              		.cfi_def_cfa_offset 32
  40 0004 0446     		mov	r4, r0
  28:Core/Src/BME280.c ****     uint8_t id, hal_status;
  41              		.loc 1 28 5 is_stmt 1 view .LVU2
  29:Core/Src/BME280.c ****     hal_status = HAL_I2C_Mem_Read(dev->i2c_handle, BME280_ADDRESS, BME280_ID_ADDRESS, I2C_MEMADD_SI
  42              		.loc 1 29 5 view .LVU3
  43              		.loc 1 29 18 is_stmt 0 view .LVU4
  44 0006 4FF0FF33 		mov	r3, #-1
  45 000a 0293     		str	r3, [sp, #8]
  46 000c 0123     		movs	r3, #1
  47 000e 0193     		str	r3, [sp, #4]
  48 0010 0DF11702 		add	r2, sp, #23
  49 0014 0092     		str	r2, [sp]
  50 0016 D022     		movs	r2, #208
  51 0018 EE21     		movs	r1, #238
  52 001a 0068     		ldr	r0, [r0]
  53              	.LVL1:
  54              		.loc 1 29 18 view .LVU5
  55 001c FFF7FEFF 		bl	HAL_I2C_Mem_Read
  56              	.LVL2:
  30:Core/Src/BME280.c ****     dev->id = id;
  57              		.loc 1 30 5 is_stmt 1 view .LVU6
  58              		.loc 1 30 13 is_stmt 0 view .LVU7
  59 0020 9DF81720 		ldrb	r2, [sp, #23]	@ zero_extendqisi2
  60 0024 2271     		strb	r2, [r4, #4]
  31:Core/Src/BME280.c ****     if (hal_status != HAL_OK) {
  61              		.loc 1 31 5 is_stmt 1 view .LVU8
  62              		.loc 1 31 8 is_stmt 0 view .LVU9
  63 0026 08B9     		cbnz	r0, .L5
  64              	.L2:
  32:Core/Src/BME280.c ****         return E_I2C;
  33:Core/Src/BME280.c ****     }
  34:Core/Src/BME280.c ****     return E_SUCCESS;
  35:Core/Src/BME280.c **** }
  65              		.loc 1 35 1 view .LVU10
  66 0028 06B0     		add	sp, sp, #24
  67              		.cfi_remember_state
  68              		.cfi_def_cfa_offset 8
  69              		@ sp needed
  70 002a 10BD     		pop	{r4, pc}
  71              	.LVL3:
  72              	.L5:
  73              		.cfi_restore_state
  32:Core/Src/BME280.c ****         return E_I2C;
  74              		.loc 1 32 16 view .LVU11
  75 002c 0220     		movs	r0, #2
  76 002e FBE7     		b	.L2
  77              		.cfi_endproc
  78              	.LFE131:
  80              		.section	.text.reset,"ax",%progbits
ARM GAS  /tmp/ccxTWCnb.s 			page 3


  81              		.align	1
  82              		.syntax unified
  83              		.thumb
  84              		.thumb_func
  86              	reset:
  87              	.LVL4:
  88              	.LFB132:
  36:Core/Src/BME280.c **** 
  37:Core/Src/BME280.c **** 
  38:Core/Src/BME280.c **** static BME280_error reset(BME280* dev)
  39:Core/Src/BME280.c **** {
  89              		.loc 1 39 1 is_stmt 1 view -0
  90              		.cfi_startproc
  91              		@ args = 0, pretend = 0, frame = 0
  92              		@ frame_needed = 0, uses_anonymous_args = 0
  93              		.loc 1 39 1 is_stmt 0 view .LVU13
  94 0000 00B5     		push	{lr}
  95              		.cfi_def_cfa_offset 4
  96              		.cfi_offset 14, -4
  97 0002 85B0     		sub	sp, sp, #20
  98              		.cfi_def_cfa_offset 24
  40:Core/Src/BME280.c ****     uint8_t hal_status = HAL_I2C_Mem_Write(dev->i2c_handle, BME280_ADDRESS, BME280_RESET_ADDRESS, I
  99              		.loc 1 40 5 is_stmt 1 view .LVU14
 100              		.loc 1 40 26 is_stmt 0 view .LVU15
 101 0004 0068     		ldr	r0, [r0]
 102              	.LVL5:
 103              		.loc 1 40 26 view .LVU16
 104 0006 4FF0FF33 		mov	r3, #-1
 105 000a 0293     		str	r3, [sp, #8]
 106 000c 0423     		movs	r3, #4
 107 000e 0193     		str	r3, [sp, #4]
 108 0010 B623     		movs	r3, #182
 109 0012 0093     		str	r3, [sp]
 110 0014 0123     		movs	r3, #1
 111 0016 E022     		movs	r2, #224
 112 0018 EE21     		movs	r1, #238
 113 001a FFF7FEFF 		bl	HAL_I2C_Mem_Write
 114              	.LVL6:
  41:Core/Src/BME280.c ****     if (hal_status != HAL_OK) return E_I2C;
 115              		.loc 1 41 5 is_stmt 1 view .LVU17
 116              		.loc 1 41 8 is_stmt 0 view .LVU18
 117 001e 10B9     		cbnz	r0, .L10
 118              	.L7:
  42:Core/Src/BME280.c ****     return E_SUCCESS;
  43:Core/Src/BME280.c **** }
 119              		.loc 1 43 1 view .LVU19
 120 0020 05B0     		add	sp, sp, #20
 121              		.cfi_remember_state
 122              		.cfi_def_cfa_offset 4
 123              		@ sp needed
 124 0022 5DF804FB 		ldr	pc, [sp], #4
 125              	.L10:
 126              		.cfi_restore_state
  41:Core/Src/BME280.c ****     if (hal_status != HAL_OK) return E_I2C;
 127              		.loc 1 41 38 view .LVU20
 128 0026 0220     		movs	r0, #2
 129 0028 FAE7     		b	.L7
ARM GAS  /tmp/ccxTWCnb.s 			page 4


 130              		.cfi_endproc
 131              	.LFE132:
 133              		.section	.text.config,"ax",%progbits
 134              		.align	1
 135              		.syntax unified
 136              		.thumb
 137              		.thumb_func
 139              	config:
 140              	.LVL7:
 141              	.LFB133:
  44:Core/Src/BME280.c **** 
  45:Core/Src/BME280.c **** static BME280_error config(BME280* dev, Osrs osrs_h, Osrs osrs_t, Osrs osrs_p, PowerMode mode, Stan
  46:Core/Src/BME280.c **** {
 142              		.loc 1 46 1 is_stmt 1 view -0
 143              		.cfi_startproc
 144              		@ args = 12, pretend = 0, frame = 8
 145              		@ frame_needed = 0, uses_anonymous_args = 0
 146              		.loc 1 46 1 is_stmt 0 view .LVU22
 147 0000 2DE9F047 		push	{r4, r5, r6, r7, r8, r9, r10, lr}
 148              		.cfi_def_cfa_offset 32
 149              		.cfi_offset 4, -32
 150              		.cfi_offset 5, -28
 151              		.cfi_offset 6, -24
 152              		.cfi_offset 7, -20
 153              		.cfi_offset 8, -16
 154              		.cfi_offset 9, -12
 155              		.cfi_offset 10, -8
 156              		.cfi_offset 14, -4
 157 0004 86B0     		sub	sp, sp, #24
 158              		.cfi_def_cfa_offset 56
 159 0006 0746     		mov	r7, r0
 160 0008 9246     		mov	r10, r2
 161 000a 1D46     		mov	r5, r3
  47:Core/Src/BME280.c ****     uint8_t hal_status = 0;
 162              		.loc 1 47 5 is_stmt 1 view .LVU23
 163              	.LVL8:
  48:Core/Src/BME280.c ****     uint8_t data = osrs_h;
 164              		.loc 1 48 5 view .LVU24
 165              		.loc 1 48 13 is_stmt 0 view .LVU25
 166 000c 8DF81710 		strb	r1, [sp, #23]
  49:Core/Src/BME280.c ****     hal_status |= HAL_I2C_Mem_Write(dev->i2c_handle, BME280_ADDRESS, BME280_CTRL_HUM_ADDRESS, I2C_M
 167              		.loc 1 49 5 is_stmt 1 view .LVU26
 168              		.loc 1 49 19 is_stmt 0 view .LVU27
 169 0010 4FF0FF39 		mov	r9, #-1
 170 0014 CDF80890 		str	r9, [sp, #8]
 171 0018 0126     		movs	r6, #1
 172 001a 0196     		str	r6, [sp, #4]
 173 001c 0DF11708 		add	r8, sp, #23
 174 0020 CDF80080 		str	r8, [sp]
 175 0024 3346     		mov	r3, r6
 176              	.LVL9:
 177              		.loc 1 49 19 view .LVU28
 178 0026 F222     		movs	r2, #242
 179              	.LVL10:
 180              		.loc 1 49 19 view .LVU29
 181 0028 EE21     		movs	r1, #238
 182              	.LVL11:
ARM GAS  /tmp/ccxTWCnb.s 			page 5


 183              		.loc 1 49 19 view .LVU30
 184 002a 0068     		ldr	r0, [r0]
 185              	.LVL12:
 186              		.loc 1 49 19 view .LVU31
 187 002c FFF7FEFF 		bl	HAL_I2C_Mem_Write
 188              	.LVL13:
 189              		.loc 1 49 19 view .LVU32
 190 0030 0446     		mov	r4, r0
 191              	.LVL14:
  50:Core/Src/BME280.c **** 
  51:Core/Src/BME280.c ****     data = (osrs_t << 5) | (osrs_p << 2) | mode;
 192              		.loc 1 51 5 is_stmt 1 view .LVU33
 193              		.loc 1 51 36 is_stmt 0 view .LVU34
 194 0032 AD00     		lsls	r5, r5, #2
 195              		.loc 1 51 26 view .LVU35
 196 0034 45EA4A15 		orr	r5, r5, r10, lsl #5
 197 0038 6DB2     		sxtb	r5, r5
 198              		.loc 1 51 42 view .LVU36
 199 003a 9DF83830 		ldrb	r3, [sp, #56]	@ zero_extendqisi2
 200 003e 2B43     		orrs	r3, r3, r5
 201              		.loc 1 51 10 view .LVU37
 202 0040 8DF81730 		strb	r3, [sp, #23]
  52:Core/Src/BME280.c ****     hal_status |= HAL_I2C_Mem_Write(dev->i2c_handle, BME280_ADDRESS, BME280_CTRL_MEAS_ADDRESS, I2C_
 203              		.loc 1 52 5 is_stmt 1 view .LVU38
 204              		.loc 1 52 19 is_stmt 0 view .LVU39
 205 0044 CDF80890 		str	r9, [sp, #8]
 206 0048 0196     		str	r6, [sp, #4]
 207 004a CDF80080 		str	r8, [sp]
 208 004e 3346     		mov	r3, r6
 209 0050 F422     		movs	r2, #244
 210 0052 EE21     		movs	r1, #238
 211 0054 3868     		ldr	r0, [r7]
 212 0056 FFF7FEFF 		bl	HAL_I2C_Mem_Write
 213              	.LVL15:
 214              		.loc 1 52 16 view .LVU40
 215 005a 0443     		orrs	r4, r4, r0
 216              	.LVL16:
 217              		.loc 1 52 16 view .LVU41
 218 005c E4B2     		uxtb	r4, r4
 219              	.LVL17:
  53:Core/Src/BME280.c ****     
  54:Core/Src/BME280.c ****     data = time | irr;
 220              		.loc 1 54 5 is_stmt 1 view .LVU42
 221              		.loc 1 54 10 is_stmt 0 view .LVU43
 222 005e 9DF83C30 		ldrb	r3, [sp, #60]	@ zero_extendqisi2
 223 0062 9DF84020 		ldrb	r2, [sp, #64]	@ zero_extendqisi2
 224 0066 1343     		orrs	r3, r3, r2
 225 0068 8DF81730 		strb	r3, [sp, #23]
  55:Core/Src/BME280.c ****     hal_status |= HAL_I2C_Mem_Write(dev->i2c_handle, BME280_ADDRESS, BME280_CONFIG_ADDRESS, I2C_MEM
 226              		.loc 1 55 5 is_stmt 1 view .LVU44
 227              		.loc 1 55 19 is_stmt 0 view .LVU45
 228 006c CDF80890 		str	r9, [sp, #8]
 229 0070 0196     		str	r6, [sp, #4]
 230 0072 CDF80080 		str	r8, [sp]
 231 0076 3346     		mov	r3, r6
 232 0078 F522     		movs	r2, #245
 233 007a EE21     		movs	r1, #238
ARM GAS  /tmp/ccxTWCnb.s 			page 6


 234 007c 3868     		ldr	r0, [r7]
 235 007e FFF7FEFF 		bl	HAL_I2C_Mem_Write
 236              	.LVL18:
 237              		.loc 1 55 16 view .LVU46
 238 0082 2043     		orrs	r0, r0, r4
 239              	.LVL19:
  56:Core/Src/BME280.c **** 
  57:Core/Src/BME280.c ****     if (hal_status) return E_I2C;
 240              		.loc 1 57 5 is_stmt 1 view .LVU47
 241              		.loc 1 57 8 is_stmt 0 view .LVU48
 242 0084 10F0FF00 		ands	r0, r0, #255
 243              	.LVL20:
 244              		.loc 1 57 8 view .LVU49
 245 0088 02D1     		bne	.L15
 246              	.L12:
  58:Core/Src/BME280.c ****     return E_SUCCESS;
  59:Core/Src/BME280.c **** }...
 247              		.loc 1 59 1 view .LVU50
 248 008a 06B0     		add	sp, sp, #24
 249              		.cfi_remember_state
 250              		.cfi_def_cfa_offset 32
 251              		@ sp needed
 252 008c BDE8F087 		pop	{r4, r5, r6, r7, r8, r9, r10, pc}
 253              	.LVL21:
 254              	.L15:
 255              		.cfi_restore_state
  57:Core/Src/BME280.c ****     if (hal_status) return E_I2C;
 256              		.loc 1 57 28 view .LVU51
 257 0090 0220     		movs	r0, #2
 258 0092 FAE7     		b	.L12
 259              		.cfi_endproc
 260              	.LFE133:
 262              		.section	.text.BME280_init,"ax",%progbits
 263              		.align	1
 264              		.global	BME280_init
 265              		.syntax unified
 266              		.thumb
 267              		.thumb_func
 269              	BME280_init:
 270              	.LVL22:
 271              	.LFB130:
   6:Core/Src/BME280.c **** {
 272              		.loc 1 6 1 is_stmt 1 view -0
 273              		.cfi_startproc
 274              		@ args = 0, pretend = 0, frame = 0
 275              		@ frame_needed = 0, uses_anonymous_args = 0
   6:Core/Src/BME280.c **** {
 276              		.loc 1 6 1 is_stmt 0 view .LVU53
 277 0000 10B5     		push	{r4, lr}
 278              		.cfi_def_cfa_offset 8
 279              		.cfi_offset 4, -8
 280              		.cfi_offset 14, -4
 281 0002 84B0     		sub	sp, sp, #16
 282              		.cfi_def_cfa_offset 24
 283 0004 0446     		mov	r4, r0
   7:Core/Src/BME280.c ****     BME280_error error_status;
 284              		.loc 1 7 5 is_stmt 1 view .LVU54
ARM GAS  /tmp/ccxTWCnb.s 			page 7


   8:Core/Src/BME280.c ****     dev->i2c_handle = i2c_handle;
 285              		.loc 1 8 5 view .LVU55
   8:Core/Src/BME280.c ****     dev->i2c_handle = i2c_handle;
 286              		.loc 1 8 21 is_stmt 0 view .LVU56
 287 0006 0160     		str	r1, [r0]
  11:Core/Src/BME280.c ****     error_status = validate_id(dev);
 288              		.loc 1 11 5 is_stmt 1 view .LVU57
  11:Core/Src/BME280.c ****     error_status = validate_id(dev);
 289              		.loc 1 11 20 is_stmt 0 view .LVU58
 290 0008 FFF7FEFF 		bl	validate_id
 291              	.LVL23:
  12:Core/Src/BME280.c ****     if (error_status) {
 292              		.loc 1 12 5 is_stmt 1 view .LVU59
  12:Core/Src/BME280.c ****     if (error_status) {
 293              		.loc 1 12 8 is_stmt 0 view .LVU60
 294 000c 18B9     		cbnz	r0, .L16
  14:Core/Src/BME280.c ****     } else if (dev->id != 0x60) {
 295              		.loc 1 14 12 is_stmt 1 view .LVU61
  14:Core/Src/BME280.c ****     } else if (dev->id != 0x60) {
 296              		.loc 1 14 19 is_stmt 0 view .LVU62
 297 000e 2379     		ldrb	r3, [r4, #4]	@ zero_extendqisi2
  14:Core/Src/BME280.c ****     } else if (dev->id != 0x60) {
 298              		.loc 1 14 15 view .LVU63
 299 0010 602B     		cmp	r3, #96
 300 0012 02D0     		beq	.L20
  15:Core/Src/BME280.c ****         return E_INCORRECT_ID;
 301              		.loc 1 15 16 view .LVU64
 302 0014 0120     		movs	r0, #1
 303              	.L16:
  24:Core/Src/BME280.c **** }
 304              		.loc 1 24 1 view .LVU65
 305 0016 04B0     		add	sp, sp, #16
 306              		.cfi_remember_state
 307              		.cfi_def_cfa_offset 8
 308              		@ sp needed
 309 0018 10BD     		pop	{r4, pc}
 310              	.LVL24:
 311              	.L20:
 312              		.cfi_restore_state
  19:Core/Src/BME280.c ****     error_status = reset(dev);
 313              		.loc 1 19 5 is_stmt 1 view .LVU66
  19:Core/Src/BME280.c ****     error_status = reset(dev);
 314              		.loc 1 19 20 is_stmt 0 view .LVU67
 315 001a 2046     		mov	r0, r4
 316 001c FFF7FEFF 		bl	reset
 317              	.LVL25:
  20:Core/Src/BME280.c ****     if (error_status) return error_status;
 318              		.loc 1 20 5 is_stmt 1 view .LVU68
  20:Core/Src/BME280.c ****     if (error_status) return error_status;
 319              		.loc 1 20 8 is_stmt 0 view .LVU69
 320 0020 0028     		cmp	r0, #0
 321 0022 F8D1     		bne	.L16
  22:Core/Src/BME280.c ****     error_status = config(dev, OSRS_1x, OSRS_16x, OSRS_4x, NORMAL_MODE, MS_250, IRR_2);
 322              		.loc 1 22 5 is_stmt 1 view .LVU70
  22:Core/Src/BME280.c ****     error_status = config(dev, OSRS_1x, OSRS_16x, OSRS_4x, NORMAL_MODE, MS_250, IRR_2);
 323              		.loc 1 22 20 is_stmt 0 view .LVU71
 324 0024 0423     		movs	r3, #4
ARM GAS  /tmp/ccxTWCnb.s 			page 8


 325 0026 0293     		str	r3, [sp, #8]
 326 0028 6023     		movs	r3, #96
 327 002a 0193     		str	r3, [sp, #4]
 328 002c 0323     		movs	r3, #3
 329 002e 0093     		str	r3, [sp]
 330 0030 0522     		movs	r2, #5
 331 0032 0121     		movs	r1, #1
 332 0034 2046     		mov	r0, r4
 333              	.LVL26:
  22:Core/Src/BME280.c ****     error_status = config(dev, OSRS_1x, OSRS_16x, OSRS_4x, NORMAL_MODE, MS_250, IRR_2);
 334              		.loc 1 22 20 view .LVU72
 335 0036 FFF7FEFF 		bl	config
 336              	.LVL27:
  23:Core/Src/BME280.c ****     if (error_status) return error_status;
 337              		.loc 1 23 5 is_stmt 1 view .LVU73
 338 003a ECE7     		b	.L16
 339              		.cfi_endproc
 340              	.LFE130:
 342              		.text
 343              	.Letext0:
 344              		.file 2 "/home/sol/.config/VSCodium/User/globalStorage/bmd.stm32-for-vscode/@xpack-dev-tools/arm-n
 345              		.file 3 "/home/sol/.config/VSCodium/User/globalStorage/bmd.stm32-for-vscode/@xpack-dev-tools/arm-n
 346              		.file 4 "Drivers/CMSIS/Device/ST/STM32F4xx/Include/stm32f401xe.h"
 347              		.file 5 "Drivers/STM32F4xx_HAL_Driver/Inc/stm32f4xx_hal_def.h"
 348              		.file 6 "Drivers/STM32F4xx_HAL_Driver/Inc/stm32f4xx_hal_dma.h"
 349              		.file 7 "Drivers/STM32F4xx_HAL_Driver/Inc/stm32f4xx_hal_i2c.h"
 350              		.file 8 "Core/Inc/BME280.h"
ARM GAS  /tmp/ccxTWCnb.s 			page 9

