ARM GAS  /tmp/cc4ooNuv.s 			page 1


   1              		.cpu cortex-m4
   2              		.arch armv7e-m
   3              		.fpu fpv4-sp-d16
   4              		.eabi_attribute 27, 1
   5              		.eabi_attribute 28, 1
   6              		.eabi_attribute 20, 1
   7              		.eabi_attribute 21, 1
   8              		.eabi_attribute 23, 3
   9              		.eabi_attribute 24, 1
  10              		.eabi_attribute 25, 1
  11              		.eabi_attribute 26, 1
  12              		.eabi_attribute 30, 1
  13              		.eabi_attribute 34, 1
  14              		.eabi_attribute 18, 4
  15              		.file	"BME280.c"
  16              		.text
  17              	.Ltext0:
  18              		.cfi_sections	.debug_frame
  19              		.file 1 "Core/Src/BME280.c"
  20              		.section	.text.validate_id,"ax",%progbits
  21              		.align	1
  22              		.syntax unified
  23              		.thumb
  24              		.thumb_func
  26              	validate_id:
  27              	.LVL0:
  28              	.LFB131:
   1:Core/Src/BME280.c **** #include <stdint.h>
   2:Core/Src/BME280.c **** #include "BME280.h"
   3:Core/Src/BME280.c **** #include "main.h"
   4:Core/Src/BME280.c **** 
   5:Core/Src/BME280.c **** BME280_error BME280_init(BME280* dev, I2C_HandleTypeDef* i2c_handle)
   6:Core/Src/BME280.c **** {
   7:Core/Src/BME280.c ****     BME280_error error_status;
   8:Core/Src/BME280.c ****     dev->i2c_handle = i2c_handle;
   9:Core/Src/BME280.c **** 
  10:Core/Src/BME280.c ****     // Check chip ID of sensor, should be 0x60
  11:Core/Src/BME280.c ****     error_status = validate_id(dev);
  12:Core/Src/BME280.c ****     if (error_status) {
  13:Core/Src/BME280.c ****         return error_status;
  14:Core/Src/BME280.c ****     } else if (dev->id != 0x60) {
  15:Core/Src/BME280.c ****         return E_INCORRECT_ID;
  16:Core/Src/BME280.c ****     }
  17:Core/Src/BME280.c **** 
  18:Core/Src/BME280.c ****     // Reset sensor
  19:Core/Src/BME280.c ****     error_status = reset(dev);
  20:Core/Src/BME280.c ****     if (error_status) return error_status;
  21:Core/Src/BME280.c **** 
  22:Core/Src/BME280.c ****     error_status = config(dev, OSRS_1x, OSRS_16x, OSRS_4x, NORMAL_MODE, MS_250, IRR_2);
  23:Core/Src/BME280.c ****     if (error_status) return error_status;
  24:Core/Src/BME280.c **** }
  25:Core/Src/BME280.c **** 
  26:Core/Src/BME280.c **** static BME280_error validate_id(BME280* dev)
  27:Core/Src/BME280.c **** {
  29              		.loc 1 27 1 view -0
  30              		.cfi_startproc
  31              		@ args = 0, pretend = 0, frame = 8
ARM GAS  /tmp/cc4ooNuv.s 			page 2


  32              		@ frame_needed = 0, uses_anonymous_args = 0
  33              		.loc 1 27 1 is_stmt 0 view .LVU1
  34 0000 10B5     		push	{r4, lr}
  35              		.cfi_def_cfa_offset 8
  36              		.cfi_offset 4, -8
  37              		.cfi_offset 14, -4
  38 0002 86B0     		sub	sp, sp, #24
  39              		.cfi_def_cfa_offset 32
  40 0004 0446     		mov	r4, r0
  28:Core/Src/BME280.c ****     uint8_t id, hal_status;
  41              		.loc 1 28 5 is_stmt 1 view .LVU2
  29:Core/Src/BME280.c ****     hal_status = HAL_I2C_Mem_Read(dev->i2c_handle, BME280_ADDRESS, BME280_ID_ADDRESS, I2C_MEMADD_SI
  42              		.loc 1 29 5 view .LVU3
  43              		.loc 1 29 18 is_stmt 0 view .LVU4
  44 0006 4FF0FF33 		mov	r3, #-1
  45 000a 0293     		str	r3, [sp, #8]
  46 000c 0123     		movs	r3, #1
  47 000e 0193     		str	r3, [sp, #4]
  48 0010 0DF11702 		add	r2, sp, #23
  49 0014 0092     		str	r2, [sp]
  50 0016 D022     		movs	r2, #208
  51 0018 EE21     		movs	r1, #238
  52 001a 0068     		ldr	r0, [r0]
  53              	.LVL1:
  54              		.loc 1 29 18 view .LVU5
  55 001c FFF7FEFF 		bl	HAL_I2C_Mem_Read
  56              	.LVL2:
  30:Core/Src/BME280.c ****     dev->id = id;
  57              		.loc 1 30 5 is_stmt 1 view .LVU6
  58              		.loc 1 30 13 is_stmt 0 view .LVU7
  59 0020 9DF81720 		ldrb	r2, [sp, #23]	@ zero_extendqisi2
  60 0024 2271     		strb	r2, [r4, #4]
  31:Core/Src/BME280.c ****     if (hal_status) return E_I2C;
  61              		.loc 1 31 5 is_stmt 1 view .LVU8
  62              		.loc 1 31 8 is_stmt 0 view .LVU9
  63 0026 08B9     		cbnz	r0, .L5
  64              	.L2:
  32:Core/Src/BME280.c ****     return E_SUCCESS;
  33:Core/Src/BME280.c **** }
  65              		.loc 1 33 1 view .LVU10
  66 0028 06B0     		add	sp, sp, #24
  67              		.cfi_remember_state
  68              		.cfi_def_cfa_offset 8
  69              		@ sp needed
  70 002a 10BD     		pop	{r4, pc}
  71              	.LVL3:
  72              	.L5:
  73              		.cfi_restore_state
  31:Core/Src/BME280.c ****     if (hal_status) return E_I2C;
  74              		.loc 1 31 28 view .LVU11
  75 002c 0220     		movs	r0, #2
  76 002e FBE7     		b	.L2
  77              		.cfi_endproc
  78              	.LFE131:
  80              		.section	.text.reset,"ax",%progbits
  81              		.align	1
  82              		.syntax unified
ARM GAS  /tmp/cc4ooNuv.s 			page 3


  83              		.thumb
  84              		.thumb_func
  86              	reset:
  87              	.LVL4:
  88              	.LFB132:
  34:Core/Src/BME280.c **** 
  35:Core/Src/BME280.c **** 
  36:Core/Src/BME280.c **** static BME280_error reset(BME280* dev)
  37:Core/Src/BME280.c **** {
  89              		.loc 1 37 1 is_stmt 1 view -0
  90              		.cfi_startproc
  91              		@ args = 0, pretend = 0, frame = 0
  92              		@ frame_needed = 0, uses_anonymous_args = 0
  93              		.loc 1 37 1 is_stmt 0 view .LVU13
  94 0000 00B5     		push	{lr}
  95              		.cfi_def_cfa_offset 4
  96              		.cfi_offset 14, -4
  97 0002 85B0     		sub	sp, sp, #20
  98              		.cfi_def_cfa_offset 24
  38:Core/Src/BME280.c ****     uint8_t hal_status = HAL_I2C_Mem_Write(dev->i2c_handle, BME280_ADDRESS, BME280_RESET_ADDRESS, I
  99              		.loc 1 38 5 is_stmt 1 view .LVU14
 100              		.loc 1 38 26 is_stmt 0 view .LVU15
 101 0004 0068     		ldr	r0, [r0]
 102              	.LVL5:
 103              		.loc 1 38 26 view .LVU16
 104 0006 4FF0FF33 		mov	r3, #-1
 105 000a 0293     		str	r3, [sp, #8]
 106 000c 0423     		movs	r3, #4
 107 000e 0193     		str	r3, [sp, #4]
 108 0010 B623     		movs	r3, #182
 109 0012 0093     		str	r3, [sp]
 110 0014 0123     		movs	r3, #1
 111 0016 E022     		movs	r2, #224
 112 0018 EE21     		movs	r1, #238
 113 001a FFF7FEFF 		bl	HAL_I2C_Mem_Write
 114              	.LVL6:
  39:Core/Src/BME280.c ****     if (hal_status) return E_I2C;
 115              		.loc 1 39 5 is_stmt 1 view .LVU17
 116              		.loc 1 39 8 is_stmt 0 view .LVU18
 117 001e 10B9     		cbnz	r0, .L10
 118              	.L7:
  40:Core/Src/BME280.c ****     return E_SUCCESS;
  41:Core/Src/BME280.c **** }
 119              		.loc 1 41 1 view .LVU19
 120 0020 05B0     		add	sp, sp, #20
 121              		.cfi_remember_state
 122              		.cfi_def_cfa_offset 4
 123              		@ sp needed
 124 0022 5DF804FB 		ldr	pc, [sp], #4
 125              	.L10:
 126              		.cfi_restore_state
  39:Core/Src/BME280.c ****     if (hal_status) return E_I2C;
 127              		.loc 1 39 28 view .LVU20
 128 0026 0220     		movs	r0, #2
 129 0028 FAE7     		b	.L7
 130              		.cfi_endproc
 131              	.LFE132:
ARM GAS  /tmp/cc4ooNuv.s 			page 4


 133              		.section	.text.config,"ax",%progbits
 134              		.align	1
 135              		.syntax unified
 136              		.thumb
 137              		.thumb_func
 139              	config:
 140              	.LVL7:
 141              	.LFB133:
  42:Core/Src/BME280.c **** 
  43:Core/Src/BME280.c **** static BME280_error config(BME280* dev, Osrs osrs_h, Osrs osrs_t, Osrs osrs_p, PowerMode mode, Stan
  44:Core/Src/BME280.c **** {
 142              		.loc 1 44 1 is_stmt 1 view -0
 143              		.cfi_startproc
 144              		@ args = 12, pretend = 0, frame = 8
 145              		@ frame_needed = 0, uses_anonymous_args = 0
 146              		.loc 1 44 1 is_stmt 0 view .LVU22
 147 0000 2DE9F047 		push	{r4, r5, r6, r7, r8, r9, r10, lr}
 148              		.cfi_def_cfa_offset 32
 149              		.cfi_offset 4, -32
 150              		.cfi_offset 5, -28
 151              		.cfi_offset 6, -24
 152              		.cfi_offset 7, -20
 153              		.cfi_offset 8, -16
 154              		.cfi_offset 9, -12
 155              		.cfi_offset 10, -8
 156              		.cfi_offset 14, -4
 157 0004 86B0     		sub	sp, sp, #24
 158              		.cfi_def_cfa_offset 56
 159 0006 0746     		mov	r7, r0
 160 0008 9246     		mov	r10, r2
 161 000a 1D46     		mov	r5, r3
  45:Core/Src/BME280.c ****     uint8_t hal_status = 0;
 162              		.loc 1 45 5 is_stmt 1 view .LVU23
 163              	.LVL8:
  46:Core/Src/BME280.c ****     uint8_t data = osrs_h;
 164              		.loc 1 46 5 view .LVU24
 165              		.loc 1 46 13 is_stmt 0 view .LVU25
 166 000c 8DF81710 		strb	r1, [sp, #23]
  47:Core/Src/BME280.c ****     hal_status |= HAL_I2C_Mem_Write(dev->i2c_handle, BME280_ADDRESS, BME280_CTRL_HUM_ADDRESS, I2C_M
 167              		.loc 1 47 5 is_stmt 1 view .LVU26
 168              		.loc 1 47 19 is_stmt 0 view .LVU27
 169 0010 4FF0FF39 		mov	r9, #-1
 170 0014 CDF80890 		str	r9, [sp, #8]
 171 0018 0126     		movs	r6, #1
 172 001a 0196     		str	r6, [sp, #4]
 173 001c 0DF11708 		add	r8, sp, #23
 174 0020 CDF80080 		str	r8, [sp]
 175 0024 3346     		mov	r3, r6
 176              	.LVL9:
 177              		.loc 1 47 19 view .LVU28
 178 0026 F222     		movs	r2, #242
 179              	.LVL10:
 180              		.loc 1 47 19 view .LVU29
 181 0028 EE21     		movs	r1, #238
 182              	.LVL11:
 183              		.loc 1 47 19 view .LVU30
 184 002a 0068     		ldr	r0, [r0]
ARM GAS  /tmp/cc4ooNuv.s 			page 5


 185              	.LVL12:
 186              		.loc 1 47 19 view .LVU31
 187 002c FFF7FEFF 		bl	HAL_I2C_Mem_Write
 188              	.LVL13:
 189              		.loc 1 47 19 view .LVU32
 190 0030 0446     		mov	r4, r0
 191              	.LVL14:
  48:Core/Src/BME280.c **** 
  49:Core/Src/BME280.c ****     data = (osrs_t << 5) | (osrs_p << 2) | mode;
 192              		.loc 1 49 5 is_stmt 1 view .LVU33
 193              		.loc 1 49 36 is_stmt 0 view .LVU34
 194 0032 AD00     		lsls	r5, r5, #2
 195              		.loc 1 49 26 view .LVU35
 196 0034 45EA4A15 		orr	r5, r5, r10, lsl #5
 197 0038 6DB2     		sxtb	r5, r5
 198              		.loc 1 49 42 view .LVU36
 199 003a 9DF83830 		ldrb	r3, [sp, #56]	@ zero_extendqisi2
 200 003e 2B43     		orrs	r3, r3, r5
 201              		.loc 1 49 10 view .LVU37
 202 0040 8DF81730 		strb	r3, [sp, #23]
  50:Core/Src/BME280.c ****     hal_status |= HAL_I2C_Mem_Write(dev->i2c_handle, BME280_ADDRESS, BME280_CTRL_MEAS_ADDRESS, I2C_
 203              		.loc 1 50 5 is_stmt 1 view .LVU38
 204              		.loc 1 50 19 is_stmt 0 view .LVU39
 205 0044 CDF80890 		str	r9, [sp, #8]
 206 0048 0196     		str	r6, [sp, #4]
 207 004a CDF80080 		str	r8, [sp]
 208 004e 3346     		mov	r3, r6
 209 0050 F422     		movs	r2, #244
 210 0052 EE21     		movs	r1, #238
 211 0054 3868     		ldr	r0, [r7]
 212 0056 FFF7FEFF 		bl	HAL_I2C_Mem_Write
 213              	.LVL15:
 214              		.loc 1 50 16 view .LVU40
 215 005a 0443     		orrs	r4, r4, r0
 216              	.LVL16:
 217              		.loc 1 50 16 view .LVU41
 218 005c E4B2     		uxtb	r4, r4
 219              	.LVL17:
  51:Core/Src/BME280.c ****     
  52:Core/Src/BME280.c ****     data = (time << 5) | (irr << 2);
 220              		.loc 1 52 5 is_stmt 1 view .LVU42
 221              		.loc 1 52 31 is_stmt 0 view .LVU43
 222 005e 9DF84030 		ldrb	r3, [sp, #64]	@ zero_extendqisi2
 223 0062 9B00     		lsls	r3, r3, #2
 224              		.loc 1 52 24 view .LVU44
 225 0064 9DF83C20 		ldrb	r2, [sp, #60]	@ zero_extendqisi2
 226 0068 43EA4213 		orr	r3, r3, r2, lsl #5
 227              		.loc 1 52 10 view .LVU45
 228 006c 8DF81730 		strb	r3, [sp, #23]
  53:Core/Src/BME280.c ****     hal_status |= HAL_I2C_Mem_Write(dev->i2c_handle, BME280_ADDRESS, BME280_CONFIG_ADDRESS, I2C_MEM
 229              		.loc 1 53 5 is_stmt 1 view .LVU46
 230              		.loc 1 53 19 is_stmt 0 view .LVU47
 231 0070 CDF80890 		str	r9, [sp, #8]
 232 0074 0196     		str	r6, [sp, #4]
 233 0076 CDF80080 		str	r8, [sp]
 234 007a 3346     		mov	r3, r6
 235 007c F522     		movs	r2, #245
ARM GAS  /tmp/cc4ooNuv.s 			page 6


 236 007e EE21     		movs	r1, #238
 237 0080 3868     		ldr	r0, [r7]
 238 0082 FFF7FEFF 		bl	HAL_I2C_Mem_Write
 239              	.LVL18:
 240              		.loc 1 53 16 view .LVU48
 241 0086 2043     		orrs	r0, r0, r4
 242              	.LVL19:
  54:Core/Src/BME280.c **** 
  55:Core/Src/BME280.c ****     if (hal_status) return E_I2C;
 243              		.loc 1 55 5 is_stmt 1 view .LVU49
 244              		.loc 1 55 8 is_stmt 0 view .LVU50
 245 0088 10F0FF00 		ands	r0, r0, #255
 246              	.LVL20:
 247              		.loc 1 55 8 view .LVU51
 248 008c 02D1     		bne	.L15
 249              	.L12:
  56:Core/Src/BME280.c ****     return E_SUCCESS;
  57:Core/Src/BME280.c **** }
 250              		.loc 1 57 1 view .LVU52
 251 008e 06B0     		add	sp, sp, #24
 252              		.cfi_remember_state
 253              		.cfi_def_cfa_offset 32
 254              		@ sp needed
 255 0090 BDE8F087 		pop	{r4, r5, r6, r7, r8, r9, r10, pc}
 256              	.LVL21:
 257              	.L15:
 258              		.cfi_restore_state
  55:Core/Src/BME280.c ****     return E_SUCCESS;
 259              		.loc 1 55 28 view .LVU53
 260 0094 0220     		movs	r0, #2
 261 0096 FAE7     		b	.L12
 262              		.cfi_endproc
 263              	.LFE133:
 265              		.section	.text.BME280_init,"ax",%progbits
 266              		.align	1
 267              		.global	BME280_init
 268              		.syntax unified
 269              		.thumb
 270              		.thumb_func
 272              	BME280_init:
 273              	.LVL22:
 274              	.LFB130:
   6:Core/Src/BME280.c ****     BME280_error error_status;
 275              		.loc 1 6 1 is_stmt 1 view -0
 276              		.cfi_startproc
 277              		@ args = 0, pretend = 0, frame = 0
 278              		@ frame_needed = 0, uses_anonymous_args = 0
   6:Core/Src/BME280.c ****     BME280_error error_status;
 279              		.loc 1 6 1 is_stmt 0 view .LVU55
 280 0000 10B5     		push	{r4, lr}
 281              		.cfi_def_cfa_offset 8
 282              		.cfi_offset 4, -8
 283              		.cfi_offset 14, -4
 284 0002 84B0     		sub	sp, sp, #16
 285              		.cfi_def_cfa_offset 24
 286 0004 0446     		mov	r4, r0
   7:Core/Src/BME280.c ****     dev->i2c_handle = i2c_handle;
ARM GAS  /tmp/cc4ooNuv.s 			page 7


 287              		.loc 1 7 5 is_stmt 1 view .LVU56
   8:Core/Src/BME280.c **** 
 288              		.loc 1 8 5 view .LVU57
   8:Core/Src/BME280.c **** 
 289              		.loc 1 8 21 is_stmt 0 view .LVU58
 290 0006 0160     		str	r1, [r0]
  11:Core/Src/BME280.c ****     if (error_status) {
 291              		.loc 1 11 5 is_stmt 1 view .LVU59
  11:Core/Src/BME280.c ****     if (error_status) {
 292              		.loc 1 11 20 is_stmt 0 view .LVU60
 293 0008 FFF7FEFF 		bl	validate_id
 294              	.LVL23:
  12:Core/Src/BME280.c ****         return error_status;
 295              		.loc 1 12 5 is_stmt 1 view .LVU61
  12:Core/Src/BME280.c ****         return error_status;
 296              		.loc 1 12 8 is_stmt 0 view .LVU62
 297 000c 18B9     		cbnz	r0, .L16
  14:Core/Src/BME280.c ****         return E_INCORRECT_ID;
 298              		.loc 1 14 12 is_stmt 1 view .LVU63
  14:Core/Src/BME280.c ****         return E_INCORRECT_ID;
 299              		.loc 1 14 19 is_stmt 0 view .LVU64
 300 000e 2379     		ldrb	r3, [r4, #4]	@ zero_extendqisi2
  14:Core/Src/BME280.c ****         return E_INCORRECT_ID;
 301              		.loc 1 14 15 view .LVU65
 302 0010 602B     		cmp	r3, #96
 303 0012 02D0     		beq	.L20
  15:Core/Src/BME280.c ****     }
 304              		.loc 1 15 16 view .LVU66
 305 0014 0120     		movs	r0, #1
 306              	.L16:
  24:Core/Src/BME280.c **** 
 307              		.loc 1 24 1 view .LVU67
 308 0016 04B0     		add	sp, sp, #16
 309              		.cfi_remember_state
 310              		.cfi_def_cfa_offset 8
 311              		@ sp needed
 312 0018 10BD     		pop	{r4, pc}
 313              	.LVL24:
 314              	.L20:
 315              		.cfi_restore_state
  19:Core/Src/BME280.c ****     if (error_status) return error_status;
 316              		.loc 1 19 5 is_stmt 1 view .LVU68
  19:Core/Src/BME280.c ****     if (error_status) return error_status;
 317              		.loc 1 19 20 is_stmt 0 view .LVU69
 318 001a 2046     		mov	r0, r4
 319 001c FFF7FEFF 		bl	reset
 320              	.LVL25:
  20:Core/Src/BME280.c **** 
 321              		.loc 1 20 5 is_stmt 1 view .LVU70
  20:Core/Src/BME280.c **** 
 322              		.loc 1 20 8 is_stmt 0 view .LVU71
 323 0020 0028     		cmp	r0, #0
 324 0022 F8D1     		bne	.L16
  22:Core/Src/BME280.c ****     if (error_status) return error_status;
 325              		.loc 1 22 5 is_stmt 1 view .LVU72
  22:Core/Src/BME280.c ****     if (error_status) return error_status;
 326              		.loc 1 22 20 is_stmt 0 view .LVU73
ARM GAS  /tmp/cc4ooNuv.s 			page 8


 327 0024 0121     		movs	r1, #1
 328 0026 0291     		str	r1, [sp, #8]
 329 0028 0323     		movs	r3, #3
 330 002a 0193     		str	r3, [sp, #4]
 331 002c 0093     		str	r3, [sp]
 332 002e 0522     		movs	r2, #5
 333 0030 2046     		mov	r0, r4
 334              	.LVL26:
  22:Core/Src/BME280.c ****     if (error_status) return error_status;
 335              		.loc 1 22 20 view .LVU74
 336 0032 FFF7FEFF 		bl	config
 337              	.LVL27:
  23:Core/Src/BME280.c **** }
 338              		.loc 1 23 5 is_stmt 1 view .LVU75
 339 0036 EEE7     		b	.L16
 340              		.cfi_endproc
 341              	.LFE130:
 343              		.section	.text.read_temperature,"ax",%progbits
 344              		.align	1
 345              		.global	read_temperature
 346              		.syntax unified
 347              		.thumb
 348              		.thumb_func
 350              	read_temperature:
 351              	.LVL28:
 352              	.LFB135:
  58:Core/Src/BME280.c **** 
  59:Core/Src/BME280.c **** static BME280_error trim_read(BME280* dev)
  60:Core/Src/BME280.c **** {
  61:Core/Src/BME280.c ****     uint8_t hal_status, buffer[32];
  62:Core/Src/BME280.c **** 
  63:Core/Src/BME280.c ****     hal_status = HAL_I2C_Mem_Read(dev->i2c_handle, BME280_ADDRESS, BME280_REGISTER_DIG_1, I2C_MEMAD
  64:Core/Src/BME280.c ****     hal_status |= HAL_I2C_Mem_Read(dev->i2c_handle, BME280_ADDRESS, BME280_REGISTER_DIG_2, I2C_MEMA
  65:Core/Src/BME280.c **** 
  66:Core/Src/BME280.c ****     if (hal_status) return E_I2C;
  67:Core/Src/BME280.c **** 
  68:Core/Src/BME280.c ****     dev->dig_T1 = buffer[1] << 8 | buffer[0];
  69:Core/Src/BME280.c ****     dev->dig_T2 = buffer[3] << 8 | buffer[2];
  70:Core/Src/BME280.c ****     dev->dig_T3 = buffer[5] << 8 | buffer[4];
  71:Core/Src/BME280.c **** 
  72:Core/Src/BME280.c ****     dev->dig_P1 = buffer[7] << 8 | buffer[6];
  73:Core/Src/BME280.c ****     dev->dig_P2 = buffer[9] << 8 | buffer[8];
  74:Core/Src/BME280.c ****     dev->dig_P3 = buffer[11] << 8 | buffer[10];
  75:Core/Src/BME280.c ****     dev->dig_P4 = buffer[13] << 8 | buffer[12];
  76:Core/Src/BME280.c ****     dev->dig_P5 = buffer[15] << 8 | buffer[14];
  77:Core/Src/BME280.c ****     dev->dig_P6 = buffer[17] << 8 | buffer[16];
  78:Core/Src/BME280.c ****     dev->dig_P7 = buffer[19] << 8 | buffer[18];
  79:Core/Src/BME280.c ****     dev->dig_P8 = buffer[21] << 8 | buffer[20];
  80:Core/Src/BME280.c ****     dev->dig_P9 = buffer[23] << 8 | buffer[22];
  81:Core/Src/BME280.c **** 
  82:Core/Src/BME280.c ****     dev->dig_H1 = buffer[24];
  83:Core/Src/BME280.c ****     dev->dig_H2 = buffer[26] << 8 | buffer[25];
  84:Core/Src/BME280.c ****     dev->dig_H3 = buffer[27];
  85:Core/Src/BME280.c ****     dev->dig_H4 = buffer[29] << 8 | buffer[28];
  86:Core/Src/BME280.c ****     dev->dig_H5 = buffer[31] << 8 | buffer[30];
  87:Core/Src/BME280.c **** 
  88:Core/Src/BME280.c ****     return E_SUCCESS;
ARM GAS  /tmp/cc4ooNuv.s 			page 9


  89:Core/Src/BME280.c **** }
  90:Core/Src/BME280.c **** 
  91:Core/Src/BME280.c **** BME280_error read_temperature(BME280* dev)
  92:Core/Src/BME280.c **** {
 353              		.loc 1 92 1 view -0
 354              		.cfi_startproc
 355              		@ args = 0, pretend = 0, frame = 8
 356              		@ frame_needed = 0, uses_anonymous_args = 0
 357              		.loc 1 92 1 is_stmt 0 view .LVU77
 358 0000 30B5     		push	{r4, r5, lr}
 359              		.cfi_def_cfa_offset 12
 360              		.cfi_offset 4, -12
 361              		.cfi_offset 5, -8
 362              		.cfi_offset 14, -4
 363 0002 87B0     		sub	sp, sp, #28
 364              		.cfi_def_cfa_offset 40
 365 0004 0446     		mov	r4, r0
  93:Core/Src/BME280.c ****     uint8_t mode, hal_status;
 366              		.loc 1 93 5 is_stmt 1 view .LVU78
  94:Core/Src/BME280.c ****     hal_status = HAL_I2C_Mem_Read(dev->i2c_handle, BME280_ADDRESS, BME280_CTRL_MEAS_ADDRESS, I2C_ME
 367              		.loc 1 94 5 view .LVU79
 368              		.loc 1 94 18 is_stmt 0 view .LVU80
 369 0006 4FF0FF33 		mov	r3, #-1
 370 000a 0293     		str	r3, [sp, #8]
 371 000c 0123     		movs	r3, #1
 372 000e 0193     		str	r3, [sp, #4]
 373 0010 0DF11702 		add	r2, sp, #23
 374 0014 0092     		str	r2, [sp]
 375 0016 F422     		movs	r2, #244
 376 0018 EE21     		movs	r1, #238
 377 001a 0068     		ldr	r0, [r0]
 378              	.LVL29:
 379              		.loc 1 94 18 view .LVU81
 380 001c FFF7FEFF 		bl	HAL_I2C_Mem_Read
 381              	.LVL30:
  95:Core/Src/BME280.c ****     if (hal_status) return E_I2C;
 382              		.loc 1 95 5 is_stmt 1 view .LVU82
 383              		.loc 1 95 8 is_stmt 0 view .LVU83
 384 0020 D8B9     		cbnz	r0, .L24
 385 0022 0546     		mov	r5, r0
  96:Core/Src/BME280.c **** 
  97:Core/Src/BME280.c ****     // Check if temperature sampling is turned off
  98:Core/Src/BME280.c ****     if (mode >> 5 == 0b000) {
 386              		.loc 1 98 5 is_stmt 1 view .LVU84
 387              		.loc 1 98 19 is_stmt 0 view .LVU85
 388 0024 9DF81730 		ldrb	r3, [sp, #23]	@ zero_extendqisi2
 389              		.loc 1 98 8 view .LVU86
 390 0028 5809     		lsrs	r0, r3, #5
 391              	.LVL31:
 392              		.loc 1 98 8 view .LVU87
 393 002a 03D1     		bne	.L23
  99:Core/Src/BME280.c ****         dev->temperature = 0.0;
 394              		.loc 1 99 9 is_stmt 1 view .LVU88
 395              		.loc 1 99 26 is_stmt 0 view .LVU89
 396 002c 0023     		movs	r3, #0
 397 002e A362     		str	r3, [r4, #40]	@ float
 100:Core/Src/BME280.c ****         return E_SUCCESS;
ARM GAS  /tmp/cc4ooNuv.s 			page 10


 398              		.loc 1 100 9 is_stmt 1 view .LVU90
 399              	.LVL32:
 400              	.L22:
 101:Core/Src/BME280.c ****     }
 102:Core/Src/BME280.c **** 
 103:Core/Src/BME280.c ****     float temp;
 104:Core/Src/BME280.c ****     int32_t adc_T, var1, var2, t_fine;
 105:Core/Src/BME280.c ****     uint8_t buffer[3];
 106:Core/Src/BME280.c **** 
 107:Core/Src/BME280.c ****     hal_status |= HAL_I2C_Mem_Read(dev->i2c_handle, BME280_ADDRESS, BME280_TEMPDATA_ADDRESS, I2C_ME
 108:Core/Src/BME280.c ****     adc_T = buffer[0] << 14 | buffer[1] << 4 | buffer[2] >> 4;
 109:Core/Src/BME280.c **** 
 110:Core/Src/BME280.c ****     if (hal_status) return E_I2C;
 111:Core/Src/BME280.c **** 
 112:Core/Src/BME280.c ****     var1 = ((((adc_T >> 3) - ((int32_t)dev->dig_T1 << 1))) * ((int32_t)dev->dig_T2)) >> 11;
 113:Core/Src/BME280.c ****     var2 = (((((adc_T >> 4) - ((int32_t)dev->dig_T1)) * ((adc_T >> 4) - ((int32_t)dev->dig_T1))) >>
 114:Core/Src/BME280.c **** 
 115:Core/Src/BME280.c ****     temp = (float)((t_fine * 5 + 128) / 256) / 100;
 116:Core/Src/BME280.c **** 
 117:Core/Src/BME280.c ****     #ifdef CELSIUS
 118:Core/Src/BME280.c ****     dev->temperature = temp;
 119:Core/Src/BME280.c ****     #elseif FAHRENHEIT
 120:Core/Src/BME280.c ****     dev->temperature = (temp * 9 / 5) + 32;
 121:Core/Src/BME280.c ****     #elseif KELVIN
 122:Core/Src/BME280.c ****     dev->temperature = temp - 273.15;
 123:Core/Src/BME280.c ****     #endif
 124:Core/Src/BME280.c **** 
 125:Core/Src/BME280.c ****     return E_SUCCESS;
 126:Core/Src/BME280.c **** }...
 401              		.loc 1 126 1 is_stmt 0 view .LVU91
 402 0030 07B0     		add	sp, sp, #28
 403              		.cfi_remember_state
 404              		.cfi_def_cfa_offset 12
 405              		@ sp needed
 406 0032 30BD     		pop	{r4, r5, pc}
 407              	.LVL33:
 408              	.L23:
 409              		.cfi_restore_state
 103:Core/Src/BME280.c ****     float temp;
 410              		.loc 1 103 5 is_stmt 1 view .LVU92
 104:Core/Src/BME280.c ****     int32_t adc_T, var1, var2, t_fine;
 411              		.loc 1 104 5 view .LVU93
 105:Core/Src/BME280.c ****     uint8_t buffer[3];
 412              		.loc 1 105 5 view .LVU94
 107:Core/Src/BME280.c ****     hal_status |= HAL_I2C_Mem_Read(dev->i2c_handle, BME280_ADDRESS, BME280_TEMPDATA_ADDRESS, I2C_ME
 413              		.loc 1 107 5 view .LVU95
 107:Core/Src/BME280.c ****     hal_status |= HAL_I2C_Mem_Read(dev->i2c_handle, BME280_ADDRESS, BME280_TEMPDATA_ADDRESS, I2C_ME
 414              		.loc 1 107 19 is_stmt 0 view .LVU96
 415 0034 4FF0FF33 		mov	r3, #-1
 416 0038 0293     		str	r3, [sp, #8]
 417 003a 0323     		movs	r3, #3
 418 003c 0193     		str	r3, [sp, #4]
 419 003e 05AB     		add	r3, sp, #20
 420 0040 0093     		str	r3, [sp]
 421 0042 0123     		movs	r3, #1
 422 0044 FA22     		movs	r2, #250
 423 0046 EE21     		movs	r1, #238
ARM GAS  /tmp/cc4ooNuv.s 			page 11


 424 0048 2068     		ldr	r0, [r4]
 425 004a FFF7FEFF 		bl	HAL_I2C_Mem_Read
 426              	.LVL34:
 107:Core/Src/BME280.c ****     hal_status |= HAL_I2C_Mem_Read(dev->i2c_handle, BME280_ADDRESS, BME280_TEMPDATA_ADDRESS, I2C_ME
 427              		.loc 1 107 16 view .LVU97
 428 004e 0543     		orrs	r5, r5, r0
 429              	.LVL35:
 108:Core/Src/BME280.c ****     adc_T = buffer[0] << 14 | buffer[1] << 4 | buffer[2] >> 4;
 430              		.loc 1 108 5 is_stmt 1 view .LVU98
 110:Core/Src/BME280.c ****     if (hal_status) return E_I2C;
 431              		.loc 1 110 5 view .LVU99
 110:Core/Src/BME280.c ****     if (hal_status) return E_I2C;
 432              		.loc 1 110 8 is_stmt 0 view .LVU100
 433 0050 15F0FF00 		ands	r0, r5, #255
 434 0054 ECD0     		beq	.L22
 110:Core/Src/BME280.c ****     if (hal_status) return E_I2C;
 435              		.loc 1 110 28 view .LVU101
 436 0056 0220     		movs	r0, #2
 437 0058 EAE7     		b	.L22
 438              	.LVL36:
 439              	.L24:
  95:Core/Src/BME280.c ****     if (hal_status) return E_I2C;
 440              		.loc 1 95 28 view .LVU102
 441 005a 0220     		movs	r0, #2
 442              	.LVL37:
  95:Core/Src/BME280.c ****     if (hal_status) return E_I2C;
 443              		.loc 1 95 28 view .LVU103
 444 005c E8E7     		b	.L22
 445              		.cfi_endproc
 446              	.LFE135:
 448              		.text
 449              	.Letext0:
 450              		.file 2 "/home/sol/.config/VSCodium/User/globalStorage/bmd.stm32-for-vscode/@xpack-dev-tools/arm-n
 451              		.file 3 "/home/sol/.config/VSCodium/User/globalStorage/bmd.stm32-for-vscode/@xpack-dev-tools/arm-n
 452              		.file 4 "Drivers/CMSIS/Device/ST/STM32F4xx/Include/stm32f401xe.h"
 453              		.file 5 "Drivers/STM32F4xx_HAL_Driver/Inc/stm32f4xx_hal_def.h"
 454              		.file 6 "Drivers/STM32F4xx_HAL_Driver/Inc/stm32f4xx_hal_dma.h"
 455              		.file 7 "Drivers/STM32F4xx_HAL_Driver/Inc/stm32f4xx_hal_i2c.h"
 456              		.file 8 "Core/Inc/BME280.h"
ARM GAS  /tmp/cc4ooNuv.s 			page 12


DEFINED SYMBOLS
                            *ABS*:0000000000000000 BME280.c
     /tmp/cc4ooNuv.s:21     .text.validate_id:0000000000000000 $t
     /tmp/cc4ooNuv.s:26     .text.validate_id:0000000000000000 validate_id
     /tmp/cc4ooNuv.s:81     .text.reset:0000000000000000 $t
     /tmp/cc4ooNuv.s:86     .text.reset:0000000000000000 reset
     /tmp/cc4ooNuv.s:134    .text.config:0000000000000000 $t
     /tmp/cc4ooNuv.s:139    .text.config:0000000000000000 config
     /tmp/cc4ooNuv.s:266    .text.BME280_init:0000000000000000 $t
     /tmp/cc4ooNuv.s:272    .text.BME280_init:0000000000000000 BME280_init
     /tmp/cc4ooNuv.s:344    .text.read_temperature:0000000000000000 $t
     /tmp/cc4ooNuv.s:350    .text.read_temperature:0000000000000000 read_temperature

UNDEFINED SYMBOLS
HAL_I2C_Mem_Read
HAL_I2C_Mem_Write
